(dp0
S'Rancho+Cordova,+CA'
p1
(F38.5890723
F-121.302728
tp2
sS'Reston,+VA'
p3
(F38.9586307
F-77.35700279999999
tp4
sS'Pearl+Harbor'
p5
(F21.3445072
F-157.9748912
tp6
sS'Dallas'
p7
(F32.7766642
F-96.79698789999999
tp8
sS'Washington,+DC'
p9
(F38.9071923
F-77.0368707
tp10
sS'Research+Triangle+Park'
p11
(F35.8991678
F-78.86364019999999
tp12
sS'Denver'
p13
(F39.7392358
F-104.990251
tp14
sS'Atlanta,+GA'
p15
(F33.7489954
F-84.3879824
tp16
sS'Dublin,+Ireland'
p17
(F53.3498053
F-6.2603097
tp18
sS'Stockholm,+Sweden'
p19
(F59.32932349999999
F18.0685808
tp20
sS'Anaheim,+CA'
p21
(F33.8352932
F-117.9145036
tp22
sS'Sydney'
p23
(F-33.8688197
F151.2092955
tp24
sS'Ashburn,+VA'
p25
(F39.0437567
F-77.4874416
tp26
sS'Research+Triangle+Park,+NC'
p27
(F35.8991678
F-78.86364019999999
tp28
sS'Roachdale'
p29
(F39.8489339
F-86.8022295
tp30
sS'Milan,+Italy'
p31
(F45.4654219
F9.1859243
tp32
sS'Springfield'
p33
(F37.2089572
F-93.29229889999999
tp34
sS'Munich,+Germany'
p35
(F48.1351253
F11.5819806
tp36
sS'Dallas,+TX'
p37
(F32.7766642
F-96.79698789999999
tp38
sS'Orlando,+FL'
p39
(F28.5383355
F-81.3792365
tp40
sS'Singapore'
p41
(F1.352083
F103.819836
tp42
sS'Los+Angeles,+CA'
p43
(F34.0522342
F-118.2436849
tp44
sS'Frankfurt'
p45
(F50.1109221
F8.6821267
tp46
sS'Springfield,+MA'
p47
(F42.1014831
F-72.589811
tp48
sS'Chicago'
p49
(F41.8781136
F-87.6297982
tp50
sS'Pennsauken'
p51
(F39.9562052
F-75.058009
tp52
sS'Relay,+MD'
p53
(F39.228412
F-76.70623359999999
tp54
sS'Ashburn'
p55
(F39.0437567
F-77.4874416
tp56
sS'San+Jose'
p57
(F37.3382082
F-121.8863286
tp58
sS'Kansas+City'
p59
(F39.0997265
F-94.5785667
tp60
sS'Cheyenne,+WY'
p61
(F41.1399814
F-104.8202462
tp62
sS'Hamburg'
p63
(F53.5510846
F9.9936818
tp64
sS'Lees+Summit,+MO'
p65
(F38.9108408
F-94.3821724
tp66
sS'Atlanta'
p67
(F33.7489954
F-84.3879824
tp68
sS'Brussels'
p69
(F50.8503463
F4.3517211
tp70
sS'Santa+Clara'
p71
(F37.3541079
F-121.9552356
tp72
sS'Lees+Summit'
p73
(F38.9108408
F-94.3821724
tp74
sS'Tokyo'
p75
(F35.6894875
F139.6917064
tp76
sS'New+York,+NY'
p77
(F40.7127837
F-74.0059413
tp78
sS'Orlando'
p79
(F28.5383355
F-81.3792365
tp80
sS'Sydney,+Australia'
p81
(F-33.8688197
F151.2092955
tp82
sS'Chicago,+IL'
p83
(F41.8781136
F-87.6297982
tp84
sS'Dublin'
p85
(F53.3498053
F-6.2603097
tp86
sS'Brussels,+Belgium'
p87
(F50.8503463
F4.3517211
tp88
sS'Los+Angeles'
p89
(F34.0522342
F-118.2436849
tp90
sS'Manasquan,+NJ'
p91
(F40.1136928
F-74.0376355
tp92
sS'Anaheim'
p93
(F33.8352932
F-117.9145036
tp94
sS'Richardson,+TX'
p95
(F32.9483335
F-96.7298519
tp96
sS'Pearl+Harbor,+HI'
p97
(F21.3531125
F-157.9782156
tp98
sS'Stockholm'
p99
(F59.32932349999999
F18.0685808
tp100
sS'Paris'
p101
(F48.856614
F2.3522219
tp102
sS'Richardson'
p103
(F32.9483335
F-96.7298519
tp104
sS'Manasquan'
p105
(F40.1136928
F-74.0376355
tp106
sS'Reston'
p107
(F38.9586307
F-77.35700279999999
tp108
sS'New+York'
p109
(F40.7127837
F-74.0059413
tp110
sS'Copenhagen'
p111
(F55.6760968
F12.5683371
tp112
sS'Stockton'
p113
(F37.9577016
F-121.2907796
tp114
sS'Tacoma,+WA'
p115
(F47.2528768
F-122.4442906
tp116
sS'Hamburg,+Germany'
p117
(F53.5510846
F9.9936818
tp118
sS'Seattle'
p119
(F47.6062095
F-122.3320708
tp120
sS'Kansas+City,+MO'
p121
(F39.0997265
F-94.5785667
tp122
sS'Rancho+Cordova'
p123
(F38.5890723
F-121.302728
tp124
sS'San+Jose,+CA'
p125
(F37.3382082
F-121.8863286
tp126
sS'Boston'
p127
(F42.3600825
F-71.0588801
tp128
sS'Seattle,+WA'
p129
(F47.6062095
F-122.3320708
tp130
sS'Washington'
p131
(F47.7510741
F-120.7401386
tp132
sS'Cheyenne'
p133
(F41.1399814
F-104.8202462
tp134
sS'Denver,+Colorado'
p135
(F39.7392358
F-104.990251
tp136
sS'Roachdale,+IN'
p137
(F39.8489339
F-86.8022295
tp138
sS'Hong+Kong'
p139
(F22.396428
F114.109497
tp140
sS'Milan'
p141
(F45.4654219
F9.1859243
tp142
sS'London'
p143
(F51.5073509
F-0.1277583
tp144
sS'Pennsauken,+NJ'
p145
(F39.9562052
F-75.058009
tp146
sS'Amsterdam'
p147
(F52.3702157
F4.895167900000001
tp148
sS'Stockton,+CA'
p149
(F37.9577016
F-121.2907796
tp150
sS'Tacoma'
p151
(F47.2528768
F-122.4442906
tp152
sS'Munich'
p153
(F48.1351253
F11.5819806
tp154
sS'Santa+Clara,+CA'
p155
(F37.3541079
F-121.9552356
tp156
s.